Certificate:
    Data:
        Version: 3 (0x2)
        Serial Number:
            63:b9:41:0c:e3:aa:48:d7:85:f6:fa:18:b8:72:d8:8e:9e:9a:02:74
        Signature Algorithm: ED25519
        Issuer: C=GR, ST=Attica, O=Qualtek, OU=iS, CN=Service-Access-CA
        Validity
            Not Before: Jan 7 12:30:47 2024 GMT
            Not After : Jan 7 12:30:47 2026 GMT
        Subject: C=GR, CN=LoDisClient#0
        Subject Public Key Info:
            Public Key Algorithm: ED25519
                ED25519 Public-Key:
                pub:
                    7d:27:15:bc:5a:a7:88:53:ce:f5:59:a6:c1:c8:c8:
                    93:4a:b0:dd:e1:22:97:c1:1d:c6:20:f6:b9:a6:72:
                    02:ce
        X509v3 extensions:
            X509v3 Basic Constraints: 
                CA:FALSE
            X509v3 Key Usage: 
                Digital Signature, Non Repudiation, Key Encipherment
            X509v3 Subject Key Identifier: 
                87:14:39:0C:53:44:A5:4A:4A:9F:4A:B6:6E:2A:DF:4C:5B:E3:E0:61
            X509v3 Authority Key Identifier: 
                57:7C:EC:FA:EE:4C:50:32:96:D1:F9:A6:91:E6:36:A1:C5:FA:AC:77
            X509v3 Extended Key Usage: 
                TLS Web Server Authentication, TLS Web Client Authentication
    Signature Algorithm: ED25519
    Signature Value:
        0f:75:7d:1a:e8:6f:96:3a:2e:3a:ce:5c:a3:20:b2:e1:19:6d:
        47:4a:71:1c:8d:59:18:7a:c5:83:b7:04:a1:76:62:bc:dd:04:
        70:55:4d:6f:bc:65:9c:28:00:9c:c7:42:ea:c9:fc:5c:89:24:
        0a:60:c1:6b:22:b6:5a:f3:da:08
-----BEGIN CERTIFICATE-----
MIIBuTCCAWugAwIBAgIUdUbmVzVoWBM7md1qWy1vZgk3iUwwBQYDK2VwMFkxCzAJ
BgNVBAYTAkdSMQ8wDQYDVQQIDAZBdHRpY2ExEDAOBgNVBAoMB1F1YWx0ZWsxCzAJ
BgNVBAsMAmlTMRowGAYDVQQDDBFTZXJ2aWNlLUFjY2Vzcy1DQTAeFw0yNDAxMDgx
MjMwNDdaFw0yNjAxMDcxMjMwNDdaMCUxCzAJBgNVBAYTAkdSMRYwFAYDVQQDDA1M
b0Rpc0NsaWVudCMwMCowBQYDK2VwAyEAD8hZSKnjoZtSOLnW/pcKAokY5fm384CK
uEQ00uFJHyijeTB3MAkGA1UdEwQCMAAwCwYDVR0PBAQDAgXgMB0GA1UdDgQWBBRk
1WrFw+JhlN2rzoNfQmgoFpQU2zAfBgNVHSMEGDAWgBSLSU+2Na0H37Sg/oGxHhot
3PFgKTAdBgNVHSUEFjAUBggrBgEFBQcDAQYIKwYBBQUHAwIwBQYDK2VwA0EA7Sxu
iyawolnZFkx1YqsthfCJkhjJgnkOEro8HJyaix7hG8sO8bU1q9yMN/5EAQqrRdv4
TT7W0RqbRAD/Y4TQAw==
-----END CERTIFICATE-----