Certificate:
    Data:
        Version: 3 (0x2)
        Serial Number:
            2a:cc:21:60:7d:f6:3e:92:d3:48:88:be:a9:3f:06:78:22:4f:04:20
        Signature Algorithm: ED25519
        Issuer: C=GR, ST=Attica, O=Qualtek, OU=iS, CN=ApplianceSA
        Validity
            Not Before: Jan 7 12:30:47 2024 GMT
            Not After : Jan 7 12:30:47 2026 GMT
        Subject: C=GR, ST=Attica, O=Qualtek, OU=iS, CN=SMM-CA-A
        Subject Public Key Info:
            Public Key Algorithm: ED25519
                ED25519 Public-Key:
                pub:
                    49:b9:4f:65:1f:a1:2c:27:0b:cc:9c:5a:32:7b:dc:
                    48:5c:e1:16:82:5b:ec:e0:b6:dd:f3:d6:77:69:f0:
                    5e:70
        X509v3 extensions:
            X509v3 Subject Key Identifier: 
                54:0D:29:65:C5:A6:12:98:11:F2:2C:74:B0:3B:3E:A4:15:0A:75:E5
            X509v3 Authority Key Identifier: 
                33:D6:81:C5:BE:B3:06:0B:1F:D4:AC:49:3C:75:27:0B:43:29:99:8C
            X509v3 Basic Constraints: critical
                CA:TRUE
            X509v3 Key Usage: 
                Certificate Sign, CRL Sign
    Signature Algorithm: ED25519
    Signature Value:
        6d:ea:b9:7a:6d:db:38:7e:dd:a8:0c:9e:e6:93:cf:0d:3c:88:
        d3:4e:3b:6c:5f:c2:5d:28:8c:e2:7b:a4:80:7d:67:dd:b5:07:
        25:c3:16:8e:ed:7d:44:a3:8b:a8:da:e1:b2:74:64:a0:01:11:
        68:2c:4f:d9:ba:44:34:3f:4b:03
-----BEGIN CERTIFICATE-----
MIIBzzCCAYGgAwIBAgIUIAy+gxmN/IFKT6U0d/sM9ZQFrv4wBQYDK2VwMFQxCzAJ
BgNVBAYTAkdSMQ8wDQYDVQQIDAZBdHRpY2ExEDAOBgNVBAoMB1F1YWx0ZWsxCzAJ
BgNVBAsMAmlTMRUwEwYDVQQDDAxFY29zeXN0ZW0tQ0EwHhcNMjQwMTA4MTIzMDQ3
WhcNMjYwMTA3MTIzMDQ3WjBZMQswCQYDVQQGEwJHUjEPMA0GA1UECAwGQXR0aWNh
MRAwDgYDVQQKDAdRdWFsdGVrMQswCQYDVQQLDAJpUzEaMBgGA1UEAwwRU2Vydmlj
ZS1BY2Nlc3MtQ0EwKjAFBgMrZXADIQD5l7+yYGAyDK3chKy9AjmhTn4DR75SM1+Z
MWjhI+TdLKNgMF4wHQYDVR0OBBYEFItJT7Y1rQfftKD+gbEeGi3c8WApMB8GA1Ud
IwQYMBaAFGserOc2nQ1XeClmFtOF4DC82U0aMA8GA1UdEwEB/wQFMAMBAf8wCwYD
VR0PBAQDAgEGMAUGAytlcANBAOv2Xgn7CB5SqSyMdVBFD6l+HL1ra3nQKPuXoj5B
i/cLjCjmmwJTu1TUOxWs6Y6KqI1nX/DAA/i9wfhxSddvdgE=
-----END CERTIFICATE-----

